; Function Attrs: mustprogress uwtable
define dso_local noundef range(i32 -1, 1) i32 @_ZNK24btInverseDynamicsBullet313MultiBodyTree9InitCache10getUserIntEiPi(ptr noundef nonnull readonly align 8 captures(none) dereferenceable(172) %0, i32 noundef %1, ptr noundef writeonly captures(none) %2) local_unnamed_addr #3 align 2 {
  %4 = icmp slt i32 %1, 0
  %5 = getelementptr inbounds nuw i8, ptr %0, i64 108
  %6 = load i32, ptr %5, align 4
  %7 = icmp sgt i32 %1, %6
  %or.cond = select i1 %4, i1 true, i1 %7
  br i1 %or.cond, label %8, label %9

8:                                                ; preds = %3
  tail call void (ptr, ...) @b3OutputErrorMessageVarArgsInternal(ptr noundef nonnull @.str, ptr noundef nonnull @.str.1, i32 noundef 88)
  tail call void (ptr, ...) @b3OutputErrorMessageVarArgsInternal(ptr noundef nonnull @.str.4)
  br label %15

9:                                                ; preds = %3
  %10 = getelementptr inbounds nuw i8, ptr %0, i64 120
  %11 = load ptr, ptr %10, align 8, !tbaa !25
  %12 = zext nneg i32 %1 to i64
  %13 = getelementptr inbounds nuw i32, ptr %11, i64 %12
  %14 = load i32, ptr %13, align 4, !tbaa !53
  store i32 %14, ptr %2, align 4, !tbaa !53
  br label %15

15:                                               ; preds = %9, %8
  %.0 = phi i32 [ -1, %8 ], [ 0, %9 ]
  ret i32 %.0
}